Certificate:
    Data:
        Version: 1 (0x0)
        Serial Number: 110 (0x6e)
        Signature Algorithm: md5WithRSAEncryption
        Issuer: C=SG, ST=Some-State, O=SUTD, OU=ISTD, CN=Liang Shuailong/emailAddress=liangshuailong@gmail.com
        Validity
            Not Before: Apr  7 09:46:11 2017 GMT
            Not After : Apr  7 09:46:11 2018 GMT
        Subject: C=SG, ST=Singapore, L=Singapore, O=Singapore University of Technology and Design, CN=Zou Yun/emailAddress=zou_yun@mymail.sutd.edu.sg
        Subject Public Key Info:
            Public Key Algorithm: rsaEncryption
            RSA Public Key: (1024 bit)
                Modulus (1024 bit):
                    00:b2:fd:4c:ec:8a:41:90:87:e4:34:28:0e:7f:bc:
                    6c:81:da:34:68:3b:9e:16:fa:80:f8:3a:95:24:e0:
                    d0:e7:7a:40:c0:00:41:ad:42:52:47:c5:4c:68:10:
                    d5:5d:1c:0c:7b:c8:a0:71:ab:16:fa:6b:8b:3d:e5:
                    10:2a:e5:a8:c3:3a:a0:94:46:1c:2e:1a:10:c8:16:
                    b1:77:e7:3e:14:12:d8:be:02:e7:8a:cd:1b:a4:44:
                    20:dc:d0:47:e9:8d:51:51:2f:9d:5e:d8:c4:22:23:
                    7c:6f:7d:17:c9:11:bb:0b:07:ad:3b:a5:65:81:87:
                    c9:74:28:ca:1b:10:60:be:2f
                Exponent: 65537 (0x10001)
    Signature Algorithm: md5WithRSAEncryption
        e1:f4:e5:82:0b:f9:64:42:0e:bd:f3:e9:62:8c:33:87:c9:e1:
        c0:1a:50:f4:0b:08:fe:2e:f2:0f:70:1d:2f:c3:53:4f:36:4f:
        18:23:12:c9:ff:54:17:1d:2d:7a:0c:8a:48:53:14:47:86:ec:
        31:5d:f8:79:88:88:db:c4:85:37:3a:5c:e4:1d:8e:66:f3:a1:
        64:5a:ca:79:23:e3:70:e9:4e:6a:4b:1f:70:95:c4:35:0f:e4:
        c3:6e:de:48:e4:f8:2b:d3:ca:a3:63:c0:84:48:10:ff:ca:85:
        a6:92:82:31:bd:65:d6:60:58:91:82:aa:fa:27:b8:8a:4c:ad:
        87:86
-----BEGIN CERTIFICATE-----
MIICnjCCAgcCAW4wDQYJKoZIhvcNAQEEBQAwgYMxCzAJBgNVBAYTAlNHMRMwEQYD
VQQIEwpTb21lLVN0YXRlMQ0wCwYDVQQKEwRTVVREMQ0wCwYDVQQLEwRJU1REMRgw
FgYDVQQDEw9MaWFuZyBTaHVhaWxvbmcxJzAlBgkqhkiG9w0BCQEWGGxpYW5nc2h1
YWlsb25nQGdtYWlsLmNvbTAeFw0xNzA0MDcwOTQ2MTFaFw0xODA0MDcwOTQ2MTFa
MIGqMQswCQYDVQQGEwJTRzESMBAGA1UECAwJU2luZ2Fwb3JlMRIwEAYDVQQHDAlT
aW5nYXBvcmUxNjA0BgNVBAoMLVNpbmdhcG9yZSBVbml2ZXJzaXR5IG9mIFRlY2hu
b2xvZ3kgYW5kIERlc2lnbjEQMA4GA1UEAwwHWm91IFl1bjEpMCcGCSqGSIb3DQEJ
ARYaem91X3l1bkBteW1haWwuc3V0ZC5lZHUuc2cwgZ8wDQYJKoZIhvcNAQEBBQAD
gY0AMIGJAoGBALL9TOyKQZCH5DQoDn+8bIHaNGg7nhb6gPg6lSTg0Od6QMAAQa1C
UkfFTGgQ1V0cDHvIoHGrFvpriz3lECrlqMM6oJRGHC4aEMgWsXfnPhQS2L4C54rN
G6REINzQR+mNUVEvnV7YxCIjfG99F8kRuwsHrTulZYGHyXQoyhsQYL4vAgMBAAEw
DQYJKoZIhvcNAQEEBQADgYEA4fTlggv5ZEIOvfPpYowzh8nhwBpQ9AsI/i7yD3Ad
L8NTTzZPGCMSyf9UFx0tegyKSFMUR4bsMV34eYiI28SFNzpc5B2OZvOhZFrKeSPj
cOlOaksfcJXENQ/kw27eSOT4K9PKo2PAhEgQ/8qFppKCMb1l1mBYkYKq+ie4ikyt
h4Y=
-----END CERTIFICATE-----
